; Function Attrs: nofree nosync nounwind memory(readwrite, inaccessiblemem: none) uwtable
define ptr @Dau_DsdToTruth(ptr noundef %0, i32 noundef %1) local_unnamed_addr #7 {
  %3 = alloca [12 x i32], align 16
  %4 = alloca ptr, align 8
  store ptr %0, ptr %4, align 8, !tbaa !19
  %5 = icmp slt i32 %1, 7
  %6 = add nsw i32 %1, -6
  %7 = shl nuw i32 1, %6
  %8 = select i1 %5, i32 1, i32 %7
  %9 = load ptr, ptr @Dau_DsdTtElems.pTtElems, align 16, !tbaa !45
  %10 = icmp eq ptr %9, null
  br i1 %10, label %.preheader5.i, label %Dau_DsdTtElems.exit

.preheader5.i:                                    ; preds = %2, %.preheader5.i
  %indvars.iv.i = phi i64 [ %indvars.iv.next.i, %.preheader5.i ], [ 0, %2 ]
  %11 = getelementptr inbounds nuw [13 x [64 x i64]], ptr @Dau_DsdTtElems.TtElems, i64 0, i64 %indvars.iv.i
  %12 = getelementptr inbounds nuw [13 x ptr], ptr @Dau_DsdTtElems.pTtElems, i64 0, i64 %indvars.iv.i
  store ptr %11, ptr %12, align 8, !tbaa !45
  %indvars.iv.next.i = add nuw nsw i64 %indvars.iv.i, 1
  %exitcond.not.i = icmp eq i64 %indvars.iv.next.i, 13
  br i1 %exitcond.not.i, label %.preheader.i, label %.preheader5.i, !llvm.loop !54

.preheader.i:                                     ; preds = %.preheader5.i, %.loopexit.i.i
  %indvars.iv12.i.i = phi i64 [ %indvars.iv.next13.i.i, %.loopexit.i.i ], [ 0, %.preheader5.i ]
  %13 = icmp samesign ult i64 %indvars.iv12.i.i, 6
  br i1 %13, label %.preheader.i.i, label %.preheader1.i.i

.preheader1.i.i:                                  ; preds = %.preheader.i
  %14 = trunc i64 %indvars.iv12.i.i to i32
  %15 = add i32 %14, -6
  %16 = shl nuw nsw i32 1, %15
  %17 = getelementptr inbounds nuw ptr, ptr @Dau_DsdTtElems.pTtElems, i64 %indvars.iv12.i.i
  %18 = load ptr, ptr %17, align 8, !tbaa !45
  br label %24

.preheader.i.i:                                   ; preds = %.preheader.i
  %19 = getelementptr inbounds nuw [6 x i64], ptr @s_Truths6, i64 0, i64 %indvars.iv12.i.i
  %20 = getelementptr inbounds nuw ptr, ptr @Dau_DsdTtElems.pTtElems, i64 %indvars.iv12.i.i
  %21 = load ptr, ptr %20, align 8, !tbaa !45
  %.pre.i.i = load i64, ptr %19, align 8, !tbaa !29
  br label %22

22:                                               ; preds = %22, %.preheader.i.i
  %indvars.iv8.i.i = phi i64 [ 0, %.preheader.i.i ], [ %indvars.iv.next9.i.i, %22 ]
  %23 = getelementptr inbounds nuw i64, ptr %21, i64 %indvars.iv8.i.i
  store i64 %.pre.i.i, ptr %23, align 8, !tbaa !29
  %indvars.iv.next9.i.i = add nuw nsw i64 %indvars.iv8.i.i, 1
  %exitcond11.not.i.i = icmp eq i64 %indvars.iv.next9.i.i, 64
  br i1 %exitcond11.not.i.i, label %.loopexit.i.i, label %22, !llvm.loop !55

24:                                               ; preds = %24, %.preheader1.i.i
  %indvars.iv.i.i = phi i64 [ 0, %.preheader1.i.i ], [ %indvars.iv.next.i.i, %24 ]
  %25 = trunc nuw nsw i64 %indvars.iv.i.i to i32
  %26 = and i32 %16, %25
  %.not.i.i = icmp ne i32 %26, 0
  %27 = sext i1 %.not.i.i to i64
  %28 = getelementptr inbounds nuw i64, ptr %18, i64 %indvars.iv.i.i
  store i64 %27, ptr %28, align 8, !tbaa !29
  %indvars.iv.next.i.i = add nuw nsw i64 %indvars.iv.i.i, 1
  %exitcond.not.i.i = icmp eq i64 %indvars.iv.next.i.i, 64
  br i1 %exitcond.not.i.i, label %.loopexit.i.i, label %24, !llvm.loop !56

.loopexit.i.i:                                    ; preds = %24, %22
  %indvars.iv.next13.i.i = add nuw nsw i64 %indvars.iv12.i.i, 1
  %exitcond15.not.i.i = icmp eq i64 %indvars.iv.next13.i.i, 12
  br i1 %exitcond15.not.i.i, label %Dau_DsdTtElems.exit, label %.preheader.i, !llvm.loop !57

Dau_DsdTtElems.exit:                              ; preds = %.loopexit.i.i, %2
  %29 = load ptr, ptr getelementptr inbounds nuw (i8, ptr @Dau_DsdTtElems.pTtElems, i64 96), align 16, !tbaa !45
  %30 = load i8, ptr %0, align 1, !tbaa !3
  switch i8 %30, label %Dau_DsdIsConst1.exit.thread [
    i8 48, label %Dau_DsdIsConst0.exit
    i8 49, label %Dau_DsdIsConst1.exit
  ]

Dau_DsdIsConst0.exit:                             ; preds = %Dau_DsdTtElems.exit
  %31 = getelementptr inbounds nuw i8, ptr %0, i64 1
  %32 = load i8, ptr %31, align 1, !tbaa !3
  %.not = icmp eq i8 %32, 0
  br i1 %.not, label %33, label %Dau_DsdIsConst1.exit.thread.thread

33:                                               ; preds = %Dau_DsdIsConst0.exit
  %34 = icmp sgt i32 %8, 0
  br i1 %34, label %.lr.ph.preheader.i, label %Abc_TtConst0.exit

.lr.ph.preheader.i:                               ; preds = %33
  %35 = zext nneg i32 %8 to i64
  %36 = shl nuw nsw i64 %35, 3
  tail call void @llvm.memset.p0.i64(ptr noundef nonnull align 8 dereferenceable(1) %29, i8 0, i64 %36, i1 false), !tbaa !29
  br label %Abc_TtConst0.exit

Dau_DsdIsConst1.exit:                             ; preds = %Dau_DsdTtElems.exit
  %37 = getelementptr inbounds nuw i8, ptr %0, i64 1
  %38 = load i8, ptr %37, align 1, !tbaa !3
  %.not15 = icmp eq i8 %38, 0
  br i1 %.not15, label %39, label %Dau_DsdIsConst1.exit.thread.thread

39:                                               ; preds = %Dau_DsdIsConst1.exit
  %40 = icmp sgt i32 %8, 0
  br i1 %40, label %.lr.ph.preheader.i10, label %Abc_TtConst0.exit

.lr.ph.preheader.i10:                             ; preds = %39
  %41 = zext nneg i32 %8 to i64
  %42 = shl nuw nsw i64 %41, 3
  tail call void @llvm.memset.p0.i64(ptr noundef nonnull align 8 dereferenceable(1) %29, i8 -1, i64 %42, i1 false), !tbaa !29
  br label %Abc_TtConst0.exit

Dau_DsdIsConst1.exit.thread.thread:               ; preds = %Dau_DsdIsConst0.exit, %Dau_DsdIsConst1.exit
  call void @llvm.lifetime.start.p0(i64 48, ptr nonnull %3) #29
  br label %.lr.ph.i.preheader

Dau_DsdIsConst1.exit.thread:                      ; preds = %Dau_DsdTtElems.exit
  call void @llvm.lifetime.start.p0(i64 48, ptr nonnull %3) #29
  %.not25.i = icmp eq i8 %30, 0
  br i1 %.not25.i, label %Dau_DsdComputeMatches.exit, label %.lr.ph.i.preheader

.lr.ph.i.preheader:                               ; preds = %Dau_DsdIsConst1.exit.thread.thread, %Dau_DsdIsConst1.exit.thread
  br label %.lr.ph.i

.lr.ph.i:                                         ; preds = %.lr.ph.i.preheader, %59
  %indvars.iv.i11 = phi i64 [ %indvars.iv.next.i12, %59 ], [ 0, %.lr.ph.i.preheader ]
  %.027.i = phi i32 [ %.1.i, %59 ], [ 0, %.lr.ph.i.preheader ]
  %43 = getelementptr inbounds nuw i8, ptr %0, i64 %indvars.iv.i11
  %44 = getelementptr inbounds nuw [2000 x i32], ptr @Dau_DsdComputeMatches.pMatches, i64 0, i64 %indvars.iv.i11
  store i32 0, ptr %44, align 4, !tbaa !6
  %45 = load i8, ptr %43, align 1, !tbaa !3
  switch i8 %45, label %59 [
    i8 40, label %46
    i8 91, label %46
    i8 60, label %46
    i8 123, label %46
    i8 41, label %51
    i8 93, label %51
    i8 62, label %51
    i8 125, label %51
  ]

46:                                               ; preds = %.lr.ph.i, %.lr.ph.i, %.lr.ph.i, %.lr.ph.i
  %47 = add nsw i32 %.027.i, 1
  %48 = sext i32 %.027.i to i64
  %49 = getelementptr inbounds [12 x i32], ptr %3, i64 0, i64 %48
  %50 = trunc nuw nsw i64 %indvars.iv.i11 to i32
  store i32 %50, ptr %49, align 4, !tbaa !6
  br label %59

51:                                               ; preds = %.lr.ph.i, %.lr.ph.i, %.lr.ph.i, %.lr.ph.i
  %52 = add nsw i32 %.027.i, -1
  %53 = sext i32 %52 to i64
  %54 = getelementptr inbounds [12 x i32], ptr %3, i64 0, i64 %53
  %55 = load i32, ptr %54, align 4, !tbaa !6
  %56 = sext i32 %55 to i64
  %57 = getelementptr inbounds [2000 x i32], ptr @Dau_DsdComputeMatches.pMatches, i64 0, i64 %56
  %58 = trunc nuw nsw i64 %indvars.iv.i11 to i32
  store i32 %58, ptr %57, align 4, !tbaa !6
  br label %59

59:                                               ; preds = %51, %46, %.lr.ph.i
  %.1.i = phi i32 [ %47, %46 ], [ %52, %51 ], [ %.027.i, %.lr.ph.i ]
  %indvars.iv.next.i12 = add nuw nsw i64 %indvars.iv.i11, 1
  %60 = getelementptr inbounds nuw i8, ptr %0, i64 %indvars.iv.next.i12
  %61 = load i8, ptr %60, align 1, !tbaa !3
  %.not.i = icmp eq i8 %61, 0
  br i1 %.not.i, label %Dau_DsdComputeMatches.exit, label %.lr.ph.i, !llvm.loop !8

Dau_DsdComputeMatches.exit:                       ; preds = %59, %Dau_DsdIsConst1.exit.thread
  call void @llvm.lifetime.end.p0(i64 48, ptr nonnull %3) #29
  call void @Dau_DsdToTruth_rec(ptr noundef nonnull %0, ptr noundef nonnull %4, ptr noundef nonnull @Dau_DsdComputeMatches.pMatches, ptr noundef nonnull @Dau_DsdTtElems.pTtElems, ptr noundef %29, i32 noundef %1)
  br label %Abc_TtConst0.exit

Abc_TtConst0.exit:                                ; preds = %.lr.ph.preheader.i10, %39, %.lr.ph.preheader.i, %33, %Dau_DsdComputeMatches.exit
  ret ptr %29
}